; Function Attrs: mustprogress uwtable
define hidden noundef zeroext i1 @_ZNK5array6solver15can_beta_reduceEP4expr(ptr noundef nonnull align 8 dereferenceable(536) %0, ptr noundef %1) local_unnamed_addr #3 align 2 {
  %3 = getelementptr inbounds nuw i8, ptr %0, i64 112
  %4 = load i32, ptr %3, align 8, !tbaa !201
  %5 = getelementptr inbounds nuw i8, ptr %1, i64 4
  %6 = load i32, ptr %5, align 4
  %trunc = trunc i32 %6 to i16
  switch i16 %trunc, label %_Z9is_lambdaPK3ast.exit.thread [
    i16 0, label %7
    i16 2, label %_Z9is_lambdaPK3ast.exit
  ]

7:                                                ; preds = %2
  %8 = getelementptr inbounds nuw i8, ptr %1, i64 16
  %9 = load ptr, ptr %8, align 8, !tbaa !374
  %10 = getelementptr inbounds nuw i8, ptr %9, i64 24
  %11 = load ptr, ptr %10, align 8, !tbaa !198
  %.not.i.i.i.i = icmp eq ptr %11, null
  br i1 %.not.i.i.i.i, label %_Z9is_lambdaPK3ast.exit.thread, label %_ZNK17array_recognizers8is_constEP4expr.exit

_ZNK17array_recognizers8is_constEP4expr.exit:     ; preds = %7
  %12 = load i32, ptr %11, align 8, !tbaa !202
  %13 = icmp eq i32 %12, %4
  %14 = getelementptr inbounds nuw i8, ptr %11, i64 4
  %15 = load i32, ptr %14, align 4
  %16 = icmp eq i32 %15, 2
  %17 = select i1 %13, i1 %16, i1 false
  br i1 %17, label %34, label %_ZNK17array_recognizers11is_as_arrayEP4expr.exit

_ZNK17array_recognizers11is_as_arrayEP4expr.exit: ; preds = %_ZNK17array_recognizers8is_constEP4expr.exit
  %18 = load i32, ptr %11, align 8, !tbaa !202
  %19 = icmp eq i32 %18, %4
  %20 = getelementptr inbounds nuw i8, ptr %11, i64 4
  %21 = load i32, ptr %20, align 4
  %22 = icmp eq i32 %21, 13
  %23 = select i1 %19, i1 %22, i1 false
  br i1 %23, label %34, label %_ZNK17array_recognizers8is_storeEP4expr.exit

_ZNK17array_recognizers8is_storeEP4expr.exit:     ; preds = %_ZNK17array_recognizers11is_as_arrayEP4expr.exit
  %24 = load i32, ptr %11, align 8, !tbaa !202
  %25 = icmp eq i32 %24, %4
  %26 = getelementptr inbounds nuw i8, ptr %11, i64 4
  %27 = load i32, ptr %26, align 4
  %28 = icmp eq i32 %27, 0
  %29 = select i1 %25, i1 %28, i1 false
  br i1 %29, label %34, label %_Z9is_lambdaPK3ast.exit.thread

_Z9is_lambdaPK3ast.exit:                          ; preds = %2
  %30 = getelementptr inbounds nuw i8, ptr %1, i64 16
  %31 = load i32, ptr %30, align 8, !tbaa !363
  %32 = icmp eq i32 %31, 2
  br i1 %32, label %34, label %_Z9is_lambdaPK3ast.exit.thread

_Z9is_lambdaPK3ast.exit.thread:                   ; preds = %7, %2, %_ZNK17array_recognizers8is_storeEP4expr.exit, %_Z9is_lambdaPK3ast.exit
  %33 = tail call noundef zeroext i1 @_ZNK5array6solver17is_map_combinatorEP4expr(ptr noundef nonnull align 8 dereferenceable(536) %0, ptr noundef nonnull %1)
  br label %34

34:                                               ; preds = %_Z9is_lambdaPK3ast.exit.thread, %_Z9is_lambdaPK3ast.exit, %_ZNK17array_recognizers8is_storeEP4expr.exit, %_ZNK17array_recognizers11is_as_arrayEP4expr.exit, %_ZNK17array_recognizers8is_constEP4expr.exit
  %35 = phi i1 [ true, %_Z9is_lambdaPK3ast.exit ], [ true, %_ZNK17array_recognizers8is_storeEP4expr.exit ], [ true, %_ZNK17array_recognizers11is_as_arrayEP4expr.exit ], [ true, %_ZNK17array_recognizers8is_constEP4expr.exit ], [ %33, %_Z9is_lambdaPK3ast.exit.thread ]
  ret i1 %35
}